(lp0
S'O'
p1
aS'I'
p2
aS'J'
p3
aS'L'
p4
aS'Z'
p5
aS'S'
p6
aS'V'
p7
aS'T'
p8
aS'X'
p9
aS'B'
p10
ag1
ag2
ag3
ag4
ag5
ag6
ag7
ag8
ag9
ag10
ag1
ag2
ag3
ag4
ag5
ag6
ag7
ag8
ag9
ag10
ag1
ag2
ag3
ag4
ag5
ag6
ag7
ag8
ag9
ag10
ag1
ag2
ag3
ag4
ag5
ag6
ag7
ag8
ag9
ag10
ag1
ag2
ag3
ag4
ag5
ag6
ag7
ag8
ag9
ag10
ag1
ag2
ag3
ag4
ag5
ag6
ag7
ag8
ag9
ag10
ag1
ag2
ag3
ag4
ag5
ag6
ag7
ag8
ag9
ag10
ag1
ag2
ag3
ag4
ag5
ag6
ag7
ag8
ag9
ag10
ag1
ag2
ag3
ag4
ag5
ag6
ag7
ag8
ag9
ag10
a.